Certificate:
    Data:
        Version: 3 (0x2)
        Serial Number: 1 (0x1)
        Signature Algorithm: sha1WithRSAEncryption
        Issuer: OU=Security, CN=NDG Test CA, O=NDG
        Validity
            Not Before: Jan 21 14:45:01 2015 GMT
            Not After : Jan 20 14:45:01 2018 GMT
        Subject: O=NDG, OU=Security, CN=localhost
        Subject Public Key Info:
            Public Key Algorithm: rsaEncryption
            RSA Public Key: (2048 bit)
                Modulus (2048 bit):
                    00:e3:29:45:fc:56:2d:a2:21:b6:49:c6:6a:ef:b3:
                    ed:d3:32:47:77:d9:85:ef:e5:6a:db:70:8b:5d:41:
                    4d:b5:76:f5:96:42:5a:f7:82:a5:bb:b3:e1:f9:ac:
                    c6:b7:71:61:f4:4d:dd:28:f6:b1:ef:65:dc:5a:8c:
                    47:b1:17:38:e1:8a:5f:40:b0:bb:a0:87:61:a7:72:
                    f8:c1:a1:5f:3b:f7:94:b5:cb:c3:50:84:ef:a8:13:
                    d4:92:ff:af:3a:d1:31:42:90:4b:58:4c:84:47:a6:
                    3a:a3:3d:c1:9a:43:3c:10:f6:8a:b5:97:11:b7:74:
                    ab:32:92:be:9a:fc:ef:5e:45:78:30:61:67:10:63:
                    09:ef:61:b7:1c:47:cc:69:c9:e7:27:8f:4d:97:33:
                    59:33:b8:47:89:86:4c:cd:a4:38:7c:d0:60:ee:52:
                    c8:e1:2a:f1:3b:9b:e9:7c:d5:af:88:33:91:9c:10:
                    63:89:01:03:fb:26:5e:3f:61:c3:b4:f0:fb:1f:ad:
                    e8:d2:49:8e:2f:16:81:bb:9c:d6:a5:48:91:58:7d:
                    ac:ac:2c:02:8a:f2:f4:22:80:1f:8c:32:5b:b5:77:
                    d0:36:e9:27:9a:9f:31:67:d5:4e:32:8d:cf:ce:73:
                    ef:88:86:e9:3c:53:e6:09:55:02:2b:86:7d:91:8d:
                    fb:53
                Exponent: 65537 (0x10001)
        X509v3 extensions:
            X509v3 Basic Constraints: 
                CA:FALSE
            Netscape Comment: 
                OpenSSL Generated Certificate
            X509v3 Subject Key Identifier: 
                A3:77:23:B5:1C:98:85:C8:6D:31:40:1C:2F:20:57:CD:C9:36:74:1B
            X509v3 Authority Key Identifier: 
                keyid:90:4B:D0:8C:63:8F:3A:3E:43:64:4B:EC:9B:DE:80:76:28:85:5D:68

            X509v3 Subject Alternative Name: 
                DNS:localhost
    Signature Algorithm: sha1WithRSAEncryption
        33:b4:87:0e:2c:71:88:6d:ab:cc:14:c8:3f:1e:8d:e5:ed:26:
        6b:b8:76:93:29:b1:0b:c5:e7:41:6f:14:62:8f:e1:81:bb:02:
        13:5c:b2:34:b7:94:f2:7d:1e:fe:e7:89:0b:2e:56:30:58:eb:
        90:d4:05:5b:18:d9:c5:68:61:c0:f6:f7:1a:0f:14:d8:89:8e:
        ee:ec:59:b8:48:96:58:33:2e:98:95:56:c3:02:e9:93:cd:3f:
        4c:0d:b5:b5:b6:6e:6f:95:5f:65:eb:1a:ce:56:20:e2:72:d4:
        f7:58:5f:c0:7b:49:5f:ac:6b:01:7b:c8:f0:13:19:03:dd:4e:
        05:55:f9:31:52:ea:45:eb:54:b9:4b:a2:3f:22:c7:11:47:8a:
        94:b4:e9:9e:c0:09:96:72:66:ba:01:d3:f3:00:6e:24:ca:a9:
        6d:8e:7f:0b:a0:fd:f9:c9:4f:3a:36:07:c7:4a:c7:c7:1f:c7:
        e0:2d:c3:21:d0:44:68:81:38:af:ce:cb:38:be:db:02:3d:ba:
        62:00:43:94:22:c8:d7:43:cd:db:73:23:9d:28:aa:d6:4c:08:
        45:8f:b5:1d:04:c7:2b:8e:22:12:e6:af:cd:9c:13:db:c9:76:
        f4:0c:10:25:fa:5c:46:77:7d:e5:ee:16:b4:f1:24:94:22:06:
        85:40:0c:5f
-----BEGIN CERTIFICATE-----
MIIDejCCAmKgAwIBAgIBATANBgkqhkiG9w0BAQUFADA3MREwDwYDVQQLDAhTZWN1
cml0eTEUMBIGA1UEAwwLTkRHIFRlc3QgQ0ExDDAKBgNVBAoMA05ERzAeFw0xNTAx
MjExNDQ1MDFaFw0xODAxMjAxNDQ1MDFaMDUxDDAKBgNVBAoTA05ERzERMA8GA1UE
CxMIU2VjdXJpdHkxEjAQBgNVBAMTCWxvY2FsaG9zdDCCASIwDQYJKoZIhvcNAQEB
BQADggEPADCCAQoCggEBAOMpRfxWLaIhtknGau+z7dMyR3fZhe/lattwi11BTbV2
9ZZCWveCpbuz4fmsxrdxYfRN3Sj2se9l3FqMR7EXOOGKX0Cwu6CHYady+MGhXzv3
lLXLw1CE76gT1JL/rzrRMUKQS1hMhEemOqM9wZpDPBD2irWXEbd0qzKSvpr8715F
eDBhZxBjCe9htxxHzGnJ5yePTZczWTO4R4mGTM2kOHzQYO5SyOEq8Tub6XzVr4gz
kZwQY4kBA/smXj9hw7Tw+x+t6NJJji8Wgbuc1qVIkVh9rKwsAory9CKAH4wyW7V3
0DbpJ5qfMWfVTjKNz85z74iG6TxT5glVAiuGfZGN+1MCAwEAAaOBkjCBjzAJBgNV
HRMEAjAAMCwGCWCGSAGG+EIBDQQfFh1PcGVuU1NMIEdlbmVyYXRlZCBDZXJ0aWZp
Y2F0ZTAdBgNVHQ4EFgQUo3cjtRyYhchtMUAcLyBXzck2dBswHwYDVR0jBBgwFoAU
kEvQjGOPOj5DZEvsm96AdiiFXWgwFAYDVR0RBA0wC4IJbG9jYWxob3N0MA0GCSqG
SIb3DQEBBQUAA4IBAQAztIcOLHGIbavMFMg/Ho3l7SZruHaTKbELxedBbxRij+GB
uwITXLI0t5TyfR7+54kLLlYwWOuQ1AVbGNnFaGHA9vcaDxTYiY7u7Fm4SJZYMy6Y
lVbDAumTzT9MDbW1tm5vlV9l6xrOViDictT3WF/Ae0lfrGsBe8jwExkD3U4FVfkx
UupF61S5S6I/IscRR4qUtOmewAmWcma6AdPzAG4kyqltjn8LoP35yU86NgfHSsfH
H8fgLcMh0ERogTivzss4vtsCPbpiAEOUIsjXQ83bcyOdKKrWTAhFj7UdBMcrjiIS
5q/NnBPbyXb0DBAl+lxGd33l7ha08SSUIgaFQAxf
-----END CERTIFICATE-----
